; ModuleID = '34/898.c'
source_filename = "34/898.c"
target datalayout = "e-m:e-p270:32:32-p271:32:32-p272:64:64-i64:64-f80:128-n8:16:32:64-S128"
target triple = "x86_64-pc-linux-gnu"

@.str = private unnamed_addr constant [3 x i8] c"%d\00", align 1
@.str.1 = private unnamed_addr constant [4 x i8] c"End\00", align 1
@.str.2 = private unnamed_addr constant [11 x i8] c"%d*3+1=%d\0A\00", align 1
@.str.3 = private unnamed_addr constant [9 x i8] c"%d/2=%d\0A\00", align 1

; Function Attrs: noinline nounwind uwtable
define dso_local i32 @main() #0 {
  %1 = alloca i32, align 4
  %2 = alloca i32, align 4
  store i32 0, i32* %1, align 4
  %3 = call i32 (i8*, ...) @__isoc99_scanf(i8* getelementptr inbounds ([3 x i8], [3 x i8]* @.str, i64 0, i64 0), i32* %2)
  %4 = load i32, i32* %2, align 4
  %5 = icmp eq i32 %4, 1
  br i1 %5, label %6, label %8

6:                                                ; preds = %0
  %7 = call i32 (i8*, ...) @printf(i8* getelementptr inbounds ([4 x i8], [4 x i8]* @.str.1, i64 0, i64 0))
  br label %21

8:                                                ; preds = %0
  br label %9

9:                                                ; preds = %19, %8
  %10 = load i32, i32* %2, align 4
  %11 = icmp ne i32 %10, 1
  br i1 %11, label %12, label %20

12:                                               ; preds = %9
  %13 = load i32, i32* %2, align 4
  %14 = call i32 @gujiao(i32 %13)
  store i32 %14, i32* %2, align 4
  %15 = load i32, i32* %2, align 4
  %16 = icmp eq i32 %15, 1
  br i1 %16, label %17, label %19

17:                                               ; preds = %12
  %18 = call i32 (i8*, ...) @printf(i8* getelementptr inbounds ([4 x i8], [4 x i8]* @.str.1, i64 0, i64 0))
  br label %20

19:                                               ; preds = %12
  br label %9

20:                                               ; preds = %17, %9
  br label %21

21:                                               ; preds = %20, %6
  ret i32 0
}

declare dso_local i32 @__isoc99_scanf(i8*, ...) #1

declare dso_local i32 @printf(i8*, ...) #1

; Function Attrs: noinline nounwind uwtable
define dso_local i32 @gujiao(i32 %0) #0 {
  %2 = alloca i32, align 4
  %3 = alloca i32, align 4
  store i32 %0, i32* %2, align 4
  %4 = load i32, i32* %2, align 4
  store i32 %4, i32* %3, align 4
  %5 = load i32, i32* %2, align 4
  %6 = srem i32 %5, 2
  %7 = icmp eq i32 %6, 1
  br i1 %7, label %8, label %15

8:                                                ; preds = %1
  %9 = load i32, i32* %3, align 4
  %10 = mul nsw i32 3, %9
  %11 = add nsw i32 %10, 1
  store i32 %11, i32* %2, align 4
  %12 = load i32, i32* %3, align 4
  %13 = load i32, i32* %2, align 4
  %14 = call i32 (i8*, ...) @printf(i8* getelementptr inbounds ([11 x i8], [11 x i8]* @.str.2, i64 0, i64 0), i32 %12, i32 %13)
  br label %21

15:                                               ; preds = %1
  %16 = load i32, i32* %3, align 4
  %17 = sdiv i32 %16, 2
  store i32 %17, i32* %2, align 4
  %18 = load i32, i32* %3, align 4
  %19 = load i32, i32* %2, align 4
  %20 = call i32 (i8*, ...) @printf(i8* getelementptr inbounds ([9 x i8], [9 x i8]* @.str.3, i64 0, i64 0), i32 %18, i32 %19)
  br label %21

21:                                               ; preds = %15, %8
  %22 = load i32, i32* %2, align 4
  ret i32 %22
}


!llvm.module.flags = !{!0}
!llvm.ident = !{!1}

!0 = !{i32 1, !"wchar_size", i32 4}
!1 = !{!"clang version 10.0.0-4ubuntu1 "}
